target datalayout = "e-m:e-p270:32:32-p271:32:32-p272:64:64-i64:64-i128:128-f80:128-n8:16:32:64-S128"
target triple = "x86_64-pc-linux-gnu"

%struct._XTransform = type { [3 x [3 x i32]] }

@awt_display = external global ptr, align 8

; Function Attrs: nounwind uwtable
define void @Java_sun_java2d_xr_XRBackendNative_XRSetTransformNative(ptr noundef %0, ptr noundef %1, i32 noundef %2, i32 noundef %3, i32 noundef %4, i32 noundef %5, i32 noundef %6, i32 noundef %7, i32 noundef %8) #0 {
  %10 = alloca ptr, align 8
  %11 = alloca ptr, align 8
  %12 = alloca i32, align 4
  %13 = alloca i32, align 4
  %14 = alloca i32, align 4
  %15 = alloca i32, align 4
  %16 = alloca i32, align 4
  %17 = alloca i32, align 4
  %18 = alloca i32, align 4
  %19 = alloca %struct._XTransform, align 4
  store ptr %0, ptr %10, align 8
  store ptr %1, ptr %11, align 8
  store i32 %2, ptr %12, align 4
  store i32 %3, ptr %13, align 4
  store i32 %4, ptr %14, align 4
  store i32 %5, ptr %15, align 4
  store i32 %6, ptr %16, align 4
  store i32 %7, ptr %17, align 4
  store i32 %8, ptr %18, align 4
  %20 = load i32, ptr %13, align 4
  %21 = getelementptr inbounds %struct._XTransform, ptr %19, i32 0, i32 0
  %22 = getelementptr inbounds [3 x [3 x i32]], ptr %21, i64 0, i64 0
  %23 = getelementptr inbounds [3 x i32], ptr %22, i64 0, i64 0
  store i32 %20, ptr %23, align 4
  %24 = load i32, ptr %14, align 4
  %25 = getelementptr inbounds %struct._XTransform, ptr %19, i32 0, i32 0
  %26 = getelementptr inbounds [3 x [3 x i32]], ptr %25, i64 0, i64 0
  %27 = getelementptr inbounds [3 x i32], ptr %26, i64 0, i64 1
  store i32 %24, ptr %27, align 4
  %28 = load i32, ptr %15, align 4
  %29 = getelementptr inbounds %struct._XTransform, ptr %19, i32 0, i32 0
  %30 = getelementptr inbounds [3 x [3 x i32]], ptr %29, i64 0, i64 0
  %31 = getelementptr inbounds [3 x i32], ptr %30, i64 0, i64 2
  store i32 %28, ptr %31, align 4
  %32 = load i32, ptr %16, align 4
  %33 = getelementptr inbounds %struct._XTransform, ptr %19, i32 0, i32 0
  %34 = getelementptr inbounds [3 x [3 x i32]], ptr %33, i64 0, i64 1
  %35 = getelementptr inbounds [3 x i32], ptr %34, i64 0, i64 0
  store i32 %32, ptr %35, align 4
  %36 = load i32, ptr %17, align 4
  %37 = getelementptr inbounds %struct._XTransform, ptr %19, i32 0, i32 0
  %38 = getelementptr inbounds [3 x [3 x i32]], ptr %37, i64 0, i64 1
  %39 = getelementptr inbounds [3 x i32], ptr %38, i64 0, i64 1
  store i32 %36, ptr %39, align 4
  %40 = load i32, ptr %18, align 4
  %41 = getelementptr inbounds %struct._XTransform, ptr %19, i32 0, i32 0
  %42 = getelementptr inbounds [3 x [3 x i32]], ptr %41, i64 0, i64 1
  %43 = getelementptr inbounds [3 x i32], ptr %42, i64 0, i64 2
  store i32 %40, ptr %43, align 4
  %44 = getelementptr inbounds %struct._XTransform, ptr %19, i32 0, i32 0
  %45 = getelementptr inbounds [3 x [3 x i32]], ptr %44, i64 0, i64 2
  %46 = getelementptr inbounds [3 x i32], ptr %45, i64 0, i64 0
  store i32 0, ptr %46, align 4
  %47 = getelementptr inbounds %struct._XTransform, ptr %19, i32 0, i32 0
  %48 = getelementptr inbounds [3 x [3 x i32]], ptr %47, i64 0, i64 2
  %49 = getelementptr inbounds [3 x i32], ptr %48, i64 0, i64 1
  store i32 0, ptr %49, align 4
  %50 = getelementptr inbounds %struct._XTransform, ptr %19, i32 0, i32 0
  %51 = getelementptr inbounds [3 x [3 x i32]], ptr %50, i64 0, i64 2
  %52 = getelementptr inbounds [3 x i32], ptr %51, i64 0, i64 2
  store i32 65536, ptr %52, align 4
  %53 = load ptr, ptr @awt_display, align 8
  %54 = load i32, ptr %12, align 4
  %55 = sext i32 %54 to i64
  call void @XRenderSetPictureTransform(ptr noundef %53, i64 noundef %55, ptr noundef %19)
  ret void
}