; Function Attrs: nounwind uwtable
define void @Java_sun_java2d_xr_XRBackendNative_XRSetTransformNative(ptr nocapture noundef readnone %0, ptr nocapture noundef readnone %1, i32 noundef %2, i32 noundef %3, i32 noundef %4, i32 noundef %5, i32 noundef %6, i32 noundef %7, i32 noundef %8) local_unnamed_addr #0 {
  %10 = alloca %struct._XTransform, align 4
  store i32 %3, ptr %10, align 4
  %11 = getelementptr inbounds i8, ptr %10, i64 4
  store i32 %4, ptr %11, align 4
  %12 = getelementptr inbounds i8, ptr %10, i64 8
  store i32 %5, ptr %12, align 4
  %13 = getelementptr inbounds i8, ptr %10, i64 12
  store i32 %6, ptr %13, align 4
  %14 = getelementptr inbounds i8, ptr %10, i64 16
  store i32 %7, ptr %14, align 4
  %15 = getelementptr inbounds i8, ptr %10, i64 20
  store i32 %8, ptr %15, align 4
  %16 = getelementptr inbounds i8, ptr %10, i64 24
  store i32 0, ptr %16, align 4
  %17 = getelementptr inbounds i8, ptr %10, i64 28
  store i32 0, ptr %17, align 4
  %18 = getelementptr inbounds i8, ptr %10, i64 32
  store i32 65536, ptr %18, align 4
  %19 = load ptr, ptr @awt_display, align 8
  %20 = sext i32 %2 to i64
  call void @XRenderSetPictureTransform(ptr noundef %19, i64 noundef %20, ptr noundef nonnull %10) #14
  ret void
}